target datalayout = "e-m:e-p270:32:32-p271:32:32-p272:64:64-i64:64-i128:128-f80:128-n8:16:32:64-S128"
target triple = "x86_64-pc-linux-gnu"

%"class.llvm::DiagnosticInfo.base" = type <{ ptr, i32, i8 }>
%"class.std::__cxx11::basic_string" = type { %"struct.std::__cxx11::basic_string<char>::_Alloc_hider", i64, %union.anon.12 }
%"struct.std::__cxx11::basic_string<char>::_Alloc_hider" = type { ptr }
%union.anon.12 = type { i64, [8 x i8] }
%"class.llvm::DiagnosticInfoIgnoringInvalidDebugMetadata" = type { %"class.llvm::DiagnosticInfo.base", ptr }
%"class.llvm::Module" = type <{ ptr, %"class.llvm::SymbolTableList.13", %"class.llvm::SymbolTableList.22", %"class.llvm::SymbolTableList.29", %"class.llvm::SymbolTableList.38", %"class.llvm::iplist", %"class.std::__cxx11::basic_string", %"class.std::unique_ptr", %"class.llvm::StringMap", %"class.std::unique_ptr.54", %"class.std::unique_ptr.62", %"class.std::__cxx11::basic_string", %"class.std::__cxx11::basic_string", %"class.std::__cxx11::basic_string", %"class.llvm::StringMap.70", %"class.llvm::DataLayout", %"class.llvm::StringMap.91", %"class.llvm::DenseMap", ptr, i8, [7 x i8] }>
%"class.llvm::SymbolTableList.13" = type { %"class.llvm::iplist_impl.14" }
%"class.llvm::iplist_impl.14" = type { %"class.llvm::simple_ilist.17" }
%"class.llvm::simple_ilist.17" = type { %"class.llvm::ilist_sentinel.19" }
%"class.llvm::ilist_sentinel.19" = type { %"class.llvm::ilist_node_impl.20" }
%"class.llvm::ilist_node_impl.20" = type { %"class.llvm::ilist_node_base.4" }
%"class.llvm::ilist_node_base.4" = type { %"class.llvm::ilist_detail::node_base_prevnext.5" }
%"class.llvm::ilist_detail::node_base_prevnext.5" = type { ptr, ptr }
%"class.llvm::SymbolTableList.22" = type { %"class.llvm::iplist_impl.23" }
%"class.llvm::iplist_impl.23" = type { %"class.llvm::simple_ilist.26" }
%"class.llvm::simple_ilist.26" = type { %"class.llvm::ilist_sentinel.28" }
%"class.llvm::ilist_sentinel.28" = type { %"class.llvm::ilist_node_impl.3" }
%"class.llvm::ilist_node_impl.3" = type { %"class.llvm::ilist_node_base.4" }
%"class.llvm::SymbolTableList.29" = type { %"class.llvm::iplist_impl.30" }
%"class.llvm::iplist_impl.30" = type { %"class.llvm::simple_ilist.33" }
%"class.llvm::simple_ilist.33" = type { %"class.llvm::ilist_sentinel.35" }
%"class.llvm::ilist_sentinel.35" = type { %"class.llvm::ilist_node_impl.36" }
%"class.llvm::ilist_node_impl.36" = type { %"class.llvm::ilist_node_base.4" }
%"class.llvm::SymbolTableList.38" = type { %"class.llvm::iplist_impl.39" }
%"class.llvm::iplist_impl.39" = type { %"class.llvm::simple_ilist.42" }
%"class.llvm::simple_ilist.42" = type { %"class.llvm::ilist_sentinel.44" }
%"class.llvm::ilist_sentinel.44" = type { %"class.llvm::ilist_node_impl.45" }
%"class.llvm::ilist_node_impl.45" = type { %"class.llvm::ilist_node_base.4" }
%"class.llvm::iplist" = type { %"class.llvm::iplist_impl.47" }
%"class.llvm::iplist_impl.47" = type { %"class.llvm::simple_ilist.49" }
%"class.llvm::simple_ilist.49" = type { %"class.llvm::ilist_sentinel.51" }
%"class.llvm::ilist_sentinel.51" = type { %"class.llvm::ilist_node_impl.52" }
%"class.llvm::ilist_node_impl.52" = type { %"class.llvm::ilist_node_base.4" }
%"class.std::unique_ptr" = type { %"struct.std::__uniq_ptr_data" }
%"struct.std::__uniq_ptr_data" = type { %"class.std::__uniq_ptr_impl" }
%"class.std::__uniq_ptr_impl" = type { %"class.std::tuple" }
%"class.std::tuple" = type { %"struct.std::_Tuple_impl" }
%"struct.std::_Tuple_impl" = type { %"struct.std::_Head_base.11" }
%"struct.std::_Head_base.11" = type { ptr }
%"class.llvm::StringMap" = type { %"class.llvm::StringMapImpl" }
%"class.llvm::StringMapImpl" = type { ptr, i32, i32, i32, i32 }
%"class.std::unique_ptr.54" = type { %"struct.std::__uniq_ptr_data.55" }
%"struct.std::__uniq_ptr_data.55" = type { %"class.std::__uniq_ptr_impl.56" }
%"class.std::__uniq_ptr_impl.56" = type { %"class.std::tuple.57" }
%"class.std::tuple.57" = type { %"struct.std::_Tuple_impl.58" }
%"struct.std::_Tuple_impl.58" = type { %"struct.std::_Head_base.61" }
%"struct.std::_Head_base.61" = type { ptr }
%"class.std::unique_ptr.62" = type { %"struct.std::__uniq_ptr_data.63" }
%"struct.std::__uniq_ptr_data.63" = type { %"class.std::__uniq_ptr_impl.64" }
%"class.std::__uniq_ptr_impl.64" = type { %"class.std::tuple.65" }
%"class.std::tuple.65" = type { %"struct.std::_Tuple_impl.66" }
%"struct.std::_Tuple_impl.66" = type { %"struct.std::_Head_base.69" }
%"struct.std::_Head_base.69" = type { ptr }
%"class.llvm::StringMap.70" = type { %"class.llvm::StringMapImpl" }
%"class.llvm::DataLayout" = type { i8, i32, i32, i32, %"struct.llvm::MaybeAlign", %"struct.llvm::MaybeAlign", i32, i32, %"class.llvm::SmallVector", %"class.llvm::SmallVector.71", %"class.llvm::SmallVector.77", %"class.llvm::SmallVector.79", %"class.llvm::SmallVector.81", %"class.std::__cxx11::basic_string", %"struct.llvm::Align", %"struct.llvm::Align", ptr, %"class.llvm::SmallVector.86" }
%"struct.llvm::MaybeAlign" = type { %"class.std::optional" }
%"class.std::optional" = type { %"struct.std::_Optional_base" }
%"struct.std::_Optional_base" = type { %"struct.std::_Optional_payload" }
%"struct.std::_Optional_payload" = type { %"struct.std::_Optional_payload_base" }
%"struct.std::_Optional_payload_base" = type { %"union.std::_Optional_payload_base<llvm::Align>::_Storage", i8 }
%"union.std::_Optional_payload_base<llvm::Align>::_Storage" = type { %"struct.std::_Optional_payload_base<llvm::Align>::_Empty_byte" }
%"struct.std::_Optional_payload_base<llvm::Align>::_Empty_byte" = type { i8 }
%"class.llvm::SmallVector" = type { %"class.llvm::SmallVectorImpl", %"struct.llvm::SmallVectorStorage" }
%"class.llvm::SmallVectorImpl" = type { %"class.llvm::SmallVectorTemplateBase" }
%"class.llvm::SmallVectorTemplateBase" = type { %"class.llvm::SmallVectorTemplateCommon" }
%"class.llvm::SmallVectorTemplateCommon" = type { %"class.llvm::SmallVectorBase" }
%"class.llvm::SmallVectorBase" = type { ptr, i64, i64 }
%"struct.llvm::SmallVectorStorage" = type { [8 x i8] }
%"class.llvm::SmallVector.71" = type { %"class.llvm::SmallVectorImpl.72", %"struct.llvm::SmallVectorStorage.76" }
%"class.llvm::SmallVectorImpl.72" = type { %"class.llvm::SmallVectorTemplateBase.73" }
%"class.llvm::SmallVectorTemplateBase.73" = type { %"class.llvm::SmallVectorTemplateCommon.74" }
%"class.llvm::SmallVectorTemplateCommon.74" = type { %"class.llvm::SmallVectorBase.75" }
%"class.llvm::SmallVectorBase.75" = type { ptr, i32, i32 }
%"struct.llvm::SmallVectorStorage.76" = type { [48 x i8] }
%"class.llvm::SmallVector.77" = type { %"class.llvm::SmallVectorImpl.72", %"struct.llvm::SmallVectorStorage.78" }
%"struct.llvm::SmallVectorStorage.78" = type { [32 x i8] }
%"class.llvm::SmallVector.79" = type { %"class.llvm::SmallVectorImpl.72", %"struct.llvm::SmallVectorStorage.80" }
%"struct.llvm::SmallVectorStorage.80" = type { [80 x i8] }
%"class.llvm::SmallVector.81" = type { %"class.llvm::SmallVectorImpl.82", %"struct.llvm::SmallVectorStorage.85" }
%"class.llvm::SmallVectorImpl.82" = type { %"class.llvm::SmallVectorTemplateBase.83" }
%"class.llvm::SmallVectorTemplateBase.83" = type { %"class.llvm::SmallVectorTemplateCommon.84" }
%"class.llvm::SmallVectorTemplateCommon.84" = type { %"class.llvm::SmallVectorBase.75" }
%"struct.llvm::SmallVectorStorage.85" = type { [128 x i8] }
%"struct.llvm::Align" = type { i8 }
%"class.llvm::SmallVector.86" = type { %"class.llvm::SmallVectorImpl.87", %"struct.llvm::SmallVectorStorage.90" }
%"class.llvm::SmallVectorImpl.87" = type { %"class.llvm::SmallVectorTemplateBase.88" }
%"class.llvm::SmallVectorTemplateBase.88" = type { %"class.llvm::SmallVectorTemplateCommon.89" }
%"class.llvm::SmallVectorTemplateCommon.89" = type { %"class.llvm::SmallVectorBase.75" }
%"struct.llvm::SmallVectorStorage.90" = type { [32 x i8] }
%"class.llvm::StringMap.91" = type { %"class.llvm::StringMapImpl" }
%"class.llvm::DenseMap" = type <{ ptr, i32, i32, i32, [4 x i8] }>

@.str.9 = private unnamed_addr constant [32 x i8] c"ignoring invalid debug info in \00", align 1

; Function Attrs: mustprogress nounwind uwtable
define linkonce_odr hidden noundef nonnull align 8 dereferenceable(32) ptr @_ZNK4llvm6Module19getModuleIdentifierB5cxx11Ev(ptr noundef nonnull align 8 dereferenceable(857) %0) #0 comdat align 2 {
  %2 = alloca ptr, align 8
  store ptr %0, ptr %2, align 8
  %3 = load ptr, ptr %2, align 8
  %4 = getelementptr inbounds nuw %"class.llvm::Module", ptr %3, i32 0, i32 11
  ret ptr %4
}

; Function Attrs: mustprogress nounwind uwtable
define linkonce_odr hidden noundef nonnull align 8 dereferenceable(857) ptr @_ZNK4llvm42DiagnosticInfoIgnoringInvalidDebugMetadata9getModuleEv(ptr noundef nonnull align 8 dereferenceable(24) %0) #0 comdat align 2 {
  %2 = alloca ptr, align 8
  store ptr %0, ptr %2, align 8
  %3 = load ptr, ptr %2, align 8
  %4 = getelementptr inbounds nuw %"class.llvm::DiagnosticInfoIgnoringInvalidDebugMetadata", ptr %3, i32 0, i32 1
  %5 = load ptr, ptr %4, align 8
  ret ptr %5
}

; Function Attrs: mustprogress nounwind uwtable
define dso_local void @_ZNK4llvm42DiagnosticInfoIgnoringInvalidDebugMetadata5printERNS_17DiagnosticPrinterE(ptr noundef nonnull align 8 dereferenceable(24) %0, ptr noundef nonnull align 8 dereferenceable(8) %1) unnamed_addr #0 align 2 {
  %3 = alloca ptr, align 8
  %4 = alloca ptr, align 8
  store ptr %0, ptr %3, align 8
  store ptr %1, ptr %4, align 8
  %5 = load ptr, ptr %3, align 8
  %6 = load ptr, ptr %4, align 8
  %7 = load ptr, ptr %6, align 8
  %8 = getelementptr inbounds ptr, ptr %7, i64 6
  %9 = load ptr, ptr %8, align 8
  %10 = call noundef nonnull align 8 dereferenceable(8) ptr %9(ptr noundef nonnull align 8 dereferenceable(8) %6, ptr noundef @.str.9)
  %11 = call noundef nonnull align 8 dereferenceable(857) ptr @_ZNK4llvm42DiagnosticInfoIgnoringInvalidDebugMetadata9getModuleEv(ptr noundef nonnull align 8 dereferenceable(24) %5)
  %12 = call noundef nonnull align 8 dereferenceable(32) ptr @_ZNK4llvm6Module19getModuleIdentifierB5cxx11Ev(ptr noundef nonnull align 8 dereferenceable(857) %11)
  %13 = load ptr, ptr %10, align 8
  %14 = getelementptr inbounds ptr, ptr %13, i64 7
  %15 = load ptr, ptr %14, align 8
  %16 = call noundef nonnull align 8 dereferenceable(8) ptr %15(ptr noundef nonnull align 8 dereferenceable(8) %10, ptr noundef nonnull align 8 dereferenceable(32) %12)
  ret void
}